target datalayout = "e-m:e-p270:32:32-p271:32:32-p272:64:64-i64:64-i128:128-f80:128-n8:16:32:64-S128"
target triple = "x86_64-pc-linux-gnu"

%struct.A_Expr = type { i32, i32, ptr, ptr, ptr, i32 }

; Function Attrs: nounwind uwtable
define internal ptr @transformAExprOpAny(ptr noundef %0, ptr noundef %1) #0 {
  %3 = alloca ptr, align 8
  %4 = alloca ptr, align 8
  %5 = alloca ptr, align 8
  %6 = alloca ptr, align 8
  store ptr %0, ptr %3, align 8
  store ptr %1, ptr %4, align 8
  call void @llvm.lifetime.start.p0(i64 8, ptr %5) #8
  %7 = load ptr, ptr %3, align 8
  %8 = load ptr, ptr %4, align 8
  %9 = getelementptr inbounds nuw %struct.A_Expr, ptr %8, i32 0, i32 3
  %10 = load ptr, ptr %9, align 8
  %11 = call ptr @transformExprRecurse(ptr noundef %7, ptr noundef %10)
  store ptr %11, ptr %5, align 8
  call void @llvm.lifetime.start.p0(i64 8, ptr %6) #8
  %12 = load ptr, ptr %3, align 8
  %13 = load ptr, ptr %4, align 8
  %14 = getelementptr inbounds nuw %struct.A_Expr, ptr %13, i32 0, i32 4
  %15 = load ptr, ptr %14, align 8
  %16 = call ptr @transformExprRecurse(ptr noundef %12, ptr noundef %15)
  store ptr %16, ptr %6, align 8
  %17 = load ptr, ptr %3, align 8
  %18 = load ptr, ptr %4, align 8
  %19 = getelementptr inbounds nuw %struct.A_Expr, ptr %18, i32 0, i32 2
  %20 = load ptr, ptr %19, align 8
  %21 = load ptr, ptr %5, align 8
  %22 = load ptr, ptr %6, align 8
  %23 = load ptr, ptr %4, align 8
  %24 = getelementptr inbounds nuw %struct.A_Expr, ptr %23, i32 0, i32 5
  %25 = load i32, ptr %24, align 8
  %26 = call ptr @make_scalar_array_op(ptr noundef %17, ptr noundef %20, i1 noundef zeroext true, ptr noundef %21, ptr noundef %22, i32 noundef %25)
  call void @llvm.lifetime.end.p0(i64 8, ptr %6) #8
  call void @llvm.lifetime.end.p0(i64 8, ptr %5) #8
  ret ptr %26
}